
bin/parcv2-bypipc:     file format elf32-littlemips


Disassembly of section .text:

00080000 <_test>:
   80000:	3c020008 	lui	v1,0x8
   80004:	24420110 	addiu	v1,v1,272
   80008:	80440000 	lb	a1,0(v1)
   8000c:	241d000d 	li	sp,13
   80010:	241effef 	li	at,-17
   80014:	149e0013 	bne	a1,at,80064 <_fail>
   80018:	3c020008 	lui	v1,0x8
   8001c:	24420110 	addiu	v1,v1,272
   80020:	80440001 	lb	a1,1(v1)
   80024:	241d000e 	li	sp,14
   80028:	241effbe 	li	at,-66
   8002c:	149e000d 	bne	a1,at,80064 <_fail>
   80030:	3c020008 	lui	v1,0x8
   80034:	24420110 	addiu	v1,v1,272
   80038:	80440002 	lb	a1,2(v1)
   8003c:	241d000f 	li	sp,15
   80040:	241effad 	li	at,-83
   80044:	149e0007 	bne	a1,at,80064 <_fail>
   80048:	3c020008 	lui	v1,0x8
   8004c:	24420110 	addiu	v1,v1,272
   80050:	80440003 	lb	a1,3(v1)
   80054:	241d0010 	li	sp,16
   80058:	241effde 	li	at,-34
   8005c:	149e0001 	bne	a1,at,80064 <_fail>

00080060 <_pass>:
   80060:	241d0001 	li	sp,1

00080064 <_fail>:
   80064:	24020001 	li	v1,1
   80068:	409da800 	mtc0	sp,c0_staten
   8006c:	1402ffff 	bne	zero,v1,8006c <_fail+0x8>
   80070:	00000000 	nop
   80074:	00000000 	nop
   80078:	00000000 	nop
   8007c:	00000000 	nop
   80080:	00000000 	nop
   80084:	00000000 	nop
   80088:	00000000 	nop
   8008c:	00000000 	nop
   80090:	00000000 	nop
   80094:	00000000 	nop
   80098:	00000000 	nop
   8009c:	00000000 	nop
   800a0:	00000000 	nop
   800a4:	00000000 	nop
   800a8:	00000000 	nop
   800ac:	00000000 	nop
   800b0:	00000000 	nop
   800b4:	00000000 	nop
   800b8:	00000000 	nop
   800bc:	00000000 	nop
   800c0:	00000000 	nop
   800c4:	00000000 	nop
   800c8:	00000000 	nop
   800cc:	00000000 	nop
   800d0:	00000000 	nop
   800d4:	00000000 	nop
   800d8:	00000000 	nop
   800dc:	00000000 	nop
   800e0:	00000000 	nop
   800e4:	00000000 	nop
   800e8:	00000000 	nop
   800ec:	00000000 	nop
   800f0:	00000000 	nop
   800f4:	00000000 	nop
   800f8:	00000000 	nop
   800fc:	00000000 	nop
   80100:	00000000 	nop
   80104:	00000000 	nop
   80108:	00000000 	nop
   8010c:	00000000 	nop
