
bin/parcv2-waw:     file format elf32-littlemips


Disassembly of section .text:

00080000 <_test>:
   80000:	24020002 	li	v1,2
   80004:	24030008 	li	a0,8
   80008:	9c623007 	divu	a3,a0,v1
   8000c:	70462802 	mul	a2,v1,a3
   80010:	00000000 	nop
   80014:	00000000 	nop
   80018:	00000000 	nop
   8001c:	00000000 	nop
   80020:	00000000 	nop
   80024:	00000000 	nop
   80028:	00000000 	nop
   8002c:	00000000 	nop
   80030:	00000000 	nop
   80034:	00432821 	addu	a2,v1,a0
   80038:	00000000 	nop
   8003c:	00000000 	nop
   80040:	00000000 	nop
   80044:	00000000 	nop
   80048:	00000000 	nop
   8004c:	00000000 	nop
   80050:	241d0027 	li	sp,39
   80054:	241e000a 	li	at,10
   80058:	14be0001 	bne	a2,at,80060 <_fail>

0008005c <_pass>:
   8005c:	241d0001 	li	sp,1

00080060 <_fail>:
   80060:	24020001 	li	v1,1
   80064:	409da800 	mtc0	sp,c0_staten
   80068:	1402ffff 	bne	zero,v1,80068 <_fail+0x8>
   8006c:	00000000 	nop
   80070:	00000000 	nop
   80074:	00000000 	nop
   80078:	00000000 	nop
   8007c:	00000000 	nop
   80080:	00000000 	nop
   80084:	00000000 	nop
   80088:	00000000 	nop
   8008c:	00000000 	nop
   80090:	00000000 	nop
   80094:	00000000 	nop
   80098:	00000000 	nop
   8009c:	00000000 	nop
   800a0:	00000000 	nop
   800a4:	00000000 	nop
   800a8:	00000000 	nop
   800ac:	00000000 	nop
   800b0:	00000000 	nop
   800b4:	00000000 	nop
   800b8:	00000000 	nop
   800bc:	00000000 	nop
   800c0:	00000000 	nop
   800c4:	00000000 	nop
   800c8:	00000000 	nop
   800cc:	00000000 	nop
   800d0:	00000000 	nop
   800d4:	00000000 	nop
   800d8:	00000000 	nop
   800dc:	00000000 	nop
   800e0:	00000000 	nop
   800e4:	00000000 	nop
   800e8:	00000000 	nop
   800ec:	00000000 	nop
   800f0:	00000000 	nop
   800f4:	00000000 	nop
   800f8:	00000000 	nop
   800fc:	00000000 	nop
   80100:	00000000 	nop
   80104:	00000000 	nop
   80108:	00000000 	nop
   8010c:	00000000 	nop
